target datalayout = "e-m:e-p270:32:32-p271:32:32-p272:64:64-i64:64-i128:128-f80:128-n8:16:32:64-S128"
target triple = "x86_64-pc-linux-gnu"

@.str.182 = private unnamed_addr constant [17 x i8] c" (Service ID ANY\00", align 1
@.str.183 = private unnamed_addr constant [20 x i8] c" (Service ID 0x%04x\00", align 1
@.str.184 = private unnamed_addr constant [18 x i8] c", Instance ID ANY\00", align 1
@.str.185 = private unnamed_addr constant [21 x i8] c", Instance ID 0x%04x\00", align 1
@.str.186 = private unnamed_addr constant [14 x i8] c", Version ANY\00", align 1
@.str.187 = private unnamed_addr constant [13 x i8] c", Version %u\00", align 1
@.str.188 = private unnamed_addr constant [5 x i8] c".ANY\00", align 1
@.str.189 = private unnamed_addr constant [4 x i8] c".%u\00", align 1
@.str.190 = private unnamed_addr constant [20 x i8] c", Eventgroup ID ANY\00", align 1
@.str.191 = private unnamed_addr constant [23 x i8] c", Eventgroup ID 0x%04x\00", align 1
@.str.192 = private unnamed_addr constant [15 x i8] c", Options: %s)\00", align 1

; Function Attrs: null_pointer_is_valid sspstrong uwtable
define internal void @someip_sd_pdu_entry_append_text(ptr noundef %0, i8 noundef zeroext %1, i16 noundef zeroext %2, i16 noundef zeroext %3, i8 noundef zeroext %4, i32 noundef %5, i16 noundef zeroext %6, ptr noundef %7) #0 {
  %9 = alloca ptr, align 8
  %10 = alloca i8, align 1
  %11 = alloca i16, align 2
  %12 = alloca i16, align 2
  %13 = alloca i8, align 1
  %14 = alloca i32, align 4
  %15 = alloca i16, align 2
  %16 = alloca ptr, align 8
  store ptr %0, ptr %9, align 8
  store i8 %1, ptr %10, align 1
  store i16 %2, ptr %11, align 2
  store i16 %3, ptr %12, align 2
  store i8 %4, ptr %13, align 1
  store i32 %5, ptr %14, align 4
  store i16 %6, ptr %15, align 2
  store ptr %7, ptr %16, align 8
  %17 = load i8, ptr %10, align 1
  %18 = zext i8 %17 to i32
  %19 = icmp ne i32 %18, 1
  br i1 %19, label %20, label %25

20:                                               ; preds = %8
  %21 = load i8, ptr %10, align 1
  %22 = zext i8 %21 to i32
  %23 = icmp ne i32 %22, 2
  br i1 %23, label %24, label %25

24:                                               ; preds = %20
  br label %81

25:                                               ; preds = %20, %8
  %26 = load i16, ptr %11, align 2
  %27 = zext i16 %26 to i32
  %28 = icmp eq i32 %27, 65535
  br i1 %28, label %29, label %31

29:                                               ; preds = %25
  %30 = load ptr, ptr %9, align 8
  call void (ptr, ptr, ...) @proto_item_append_text(ptr noundef %30, ptr noundef @.str.182)
  br label %35

31:                                               ; preds = %25
  %32 = load ptr, ptr %9, align 8
  %33 = load i16, ptr %11, align 2
  %34 = zext i16 %33 to i32
  call void (ptr, ptr, ...) @proto_item_append_text(ptr noundef %32, ptr noundef @.str.183, i32 noundef %34)
  br label %35

35:                                               ; preds = %31, %29
  %36 = load i16, ptr %12, align 2
  %37 = zext i16 %36 to i32
  %38 = icmp eq i32 %37, 65535
  br i1 %38, label %39, label %41

39:                                               ; preds = %35
  %40 = load ptr, ptr %9, align 8
  call void (ptr, ptr, ...) @proto_item_append_text(ptr noundef %40, ptr noundef @.str.184)
  br label %45

41:                                               ; preds = %35
  %42 = load ptr, ptr %9, align 8
  %43 = load i16, ptr %12, align 2
  %44 = zext i16 %43 to i32
  call void (ptr, ptr, ...) @proto_item_append_text(ptr noundef %42, ptr noundef @.str.185, i32 noundef %44)
  br label %45

45:                                               ; preds = %41, %39
  %46 = load i8, ptr %13, align 1
  %47 = zext i8 %46 to i32
  %48 = icmp eq i32 %47, 255
  br i1 %48, label %49, label %51

49:                                               ; preds = %45
  %50 = load ptr, ptr %9, align 8
  call void (ptr, ptr, ...) @proto_item_append_text(ptr noundef %50, ptr noundef @.str.186)
  br label %55

51:                                               ; preds = %45
  %52 = load ptr, ptr %9, align 8
  %53 = load i8, ptr %13, align 1
  %54 = zext i8 %53 to i32
  call void (ptr, ptr, ...) @proto_item_append_text(ptr noundef %52, ptr noundef @.str.187, i32 noundef %54)
  br label %55

55:                                               ; preds = %51, %49
  %56 = load i8, ptr %10, align 1
  %57 = zext i8 %56 to i32
  switch i32 %57, label %78 [
    i32 1, label %58
    i32 2, label %67
  ]

58:                                               ; preds = %55
  %59 = load i32, ptr %14, align 4
  %60 = icmp eq i32 %59, -1
  br i1 %60, label %61, label %63

61:                                               ; preds = %58
  %62 = load ptr, ptr %9, align 8
  call void (ptr, ptr, ...) @proto_item_append_text(ptr noundef %62, ptr noundef @.str.188)
  br label %66

63:                                               ; preds = %58
  %64 = load ptr, ptr %9, align 8
  %65 = load i32, ptr %14, align 4
  call void (ptr, ptr, ...) @proto_item_append_text(ptr noundef %64, ptr noundef @.str.189, i32 noundef %65)
  br label %66

66:                                               ; preds = %63, %61
  br label %78

67:                                               ; preds = %55
  %68 = load i16, ptr %15, align 2
  %69 = zext i16 %68 to i32
  %70 = icmp eq i32 %69, 65535
  br i1 %70, label %71, label %73

71:                                               ; preds = %67
  %72 = load ptr, ptr %9, align 8
  call void (ptr, ptr, ...) @proto_item_append_text(ptr noundef %72, ptr noundef @.str.190)
  br label %77

73:                                               ; preds = %67
  %74 = load ptr, ptr %9, align 8
  %75 = load i16, ptr %15, align 2
  %76 = zext i16 %75 to i32
  call void (ptr, ptr, ...) @proto_item_append_text(ptr noundef %74, ptr noundef @.str.191, i32 noundef %76)
  br label %77

77:                                               ; preds = %73, %71
  br label %78

78:                                               ; preds = %55, %77, %66
  %79 = load ptr, ptr %9, align 8
  %80 = load ptr, ptr %16, align 8
  call void (ptr, ptr, ...) @proto_item_append_text(ptr noundef %79, ptr noundef @.str.192, ptr noundef %80)
  br label %81

81:                                               ; preds = %78, %24
  ret void
}