; Function Attrs: null_pointer_is_valid sspstrong uwtable
define internal fastcc void @someip_sd_pdu_entry_append_text(ptr noundef %0, i8 noundef zeroext range(i8 1, 3) %1, i16 noundef zeroext %2, i16 noundef zeroext %3, i8 noundef zeroext %4, i32 noundef %5, i16 noundef zeroext %6) unnamed_addr #0 {
  %8 = icmp eq i16 %2, -1
  br i1 %8, label %9, label %10

9:                                                ; preds = %7
  tail call void (ptr, ptr, ...) @proto_item_append_text(ptr noundef %0, ptr noundef nonnull @.str.182)
  br label %12

10:                                               ; preds = %7
  %11 = zext i16 %2 to i32
  tail call void (ptr, ptr, ...) @proto_item_append_text(ptr noundef %0, ptr noundef nonnull @.str.183, i32 noundef %11)
  br label %12

12:                                               ; preds = %10, %9
  %13 = icmp eq i16 %3, -1
  br i1 %13, label %14, label %15

14:                                               ; preds = %12
  tail call void (ptr, ptr, ...) @proto_item_append_text(ptr noundef %0, ptr noundef nonnull @.str.184)
  br label %17

15:                                               ; preds = %12
  %16 = zext i16 %3 to i32
  tail call void (ptr, ptr, ...) @proto_item_append_text(ptr noundef %0, ptr noundef nonnull @.str.185, i32 noundef %16)
  br label %17

17:                                               ; preds = %15, %14
  %18 = icmp eq i8 %4, -1
  br i1 %18, label %19, label %20

19:                                               ; preds = %17
  tail call void (ptr, ptr, ...) @proto_item_append_text(ptr noundef %0, ptr noundef nonnull @.str.186)
  br label %22

20:                                               ; preds = %17
  %21 = zext i8 %4 to i32
  tail call void (ptr, ptr, ...) @proto_item_append_text(ptr noundef %0, ptr noundef nonnull @.str.187, i32 noundef %21)
  br label %22

22:                                               ; preds = %20, %19
  %switch = icmp eq i8 %1, 1
  br i1 %switch, label %23, label %27

23:                                               ; preds = %22
  %24 = icmp eq i32 %5, -1
  br i1 %24, label %25, label %26

25:                                               ; preds = %23
  tail call void (ptr, ptr, ...) @proto_item_append_text(ptr noundef %0, ptr noundef nonnull @.str.188)
  br label %32

26:                                               ; preds = %23
  tail call void (ptr, ptr, ...) @proto_item_append_text(ptr noundef %0, ptr noundef nonnull @.str.189, i32 noundef %5)
  br label %32

27:                                               ; preds = %22
  %28 = icmp eq i16 %6, -1
  br i1 %28, label %29, label %30

29:                                               ; preds = %27
  tail call void (ptr, ptr, ...) @proto_item_append_text(ptr noundef %0, ptr noundef nonnull @.str.190)
  br label %32

30:                                               ; preds = %27
  %31 = zext i16 %6 to i32
  tail call void (ptr, ptr, ...) @proto_item_append_text(ptr noundef %0, ptr noundef nonnull @.str.191, i32 noundef %31)
  br label %32

32:                                               ; preds = %29, %30, %25, %26
  tail call void (ptr, ptr, ...) @proto_item_append_text(ptr noundef %0, ptr noundef nonnull @.str.192, ptr noundef nonnull @dissect_someip_sd_pdu_entry.buf_opt_ref)
  ret void
}